target datalayout = "e-m:e-p270:32:32-p271:32:32-p272:64:64-i64:64-i128:128-f80:128-n8:16:32:64-S128"
target triple = "x86_64-pc-linux-gnu"

%struct.strbuf = type { i64, i64, ptr }

; Function Attrs: inlinehint nounwind uwtable
define internal zeroext i1 @strip_suffix_mem(ptr noundef %0, ptr noundef %1, ptr noundef %2) #5 {
  %4 = alloca i1, align 1
  %5 = alloca ptr, align 8
  %6 = alloca ptr, align 8
  %7 = alloca ptr, align 8
  %8 = alloca i64, align 8
  %9 = alloca i32, align 4
  store ptr %0, ptr %5, align 8, !tbaa !11
  store ptr %1, ptr %6, align 8, !tbaa !267
  store ptr %2, ptr %7, align 8, !tbaa !11
  call void @llvm.lifetime.start.p0(i64 8, ptr %8) #11
  %10 = load ptr, ptr %7, align 8, !tbaa !11
  %11 = call i64 @strlen(ptr noundef %10) #13
  store i64 %11, ptr %8, align 8, !tbaa !173
  %12 = load ptr, ptr %6, align 8, !tbaa !267
  %13 = load i64, ptr %12, align 8, !tbaa !173
  %14 = load i64, ptr %8, align 8, !tbaa !173
  %15 = icmp ult i64 %13, %14
  br i1 %15, label %27, label %16

16:                                               ; preds = %3
  %17 = load ptr, ptr %5, align 8, !tbaa !11
  %18 = load ptr, ptr %6, align 8, !tbaa !267
  %19 = load i64, ptr %18, align 8, !tbaa !173
  %20 = load i64, ptr %8, align 8, !tbaa !173
  %21 = sub i64 %19, %20
  %22 = getelementptr inbounds nuw i8, ptr %17, i64 %21
  %23 = load ptr, ptr %7, align 8, !tbaa !11
  %24 = load i64, ptr %8, align 8, !tbaa !173
  %25 = call i32 @memcmp(ptr noundef %22, ptr noundef %23, i64 noundef %24) #13
  %26 = icmp ne i32 %25, 0
  br i1 %26, label %27, label %28

27:                                               ; preds = %16, %3
  store i1 false, ptr %4, align 1
  store i32 1, ptr %9, align 4
  br label %33

28:                                               ; preds = %16
  %29 = load i64, ptr %8, align 8, !tbaa !173
  %30 = load ptr, ptr %6, align 8, !tbaa !267
  %31 = load i64, ptr %30, align 8, !tbaa !173
  %32 = sub i64 %31, %29
  store i64 %32, ptr %30, align 8, !tbaa !173
  store i1 true, ptr %4, align 1
  store i32 1, ptr %9, align 4
  br label %33

33:                                               ; preds = %28, %27
  call void @llvm.lifetime.end.p0(i64 8, ptr %8) #11
  %34 = load i1, ptr %4, align 1
  ret i1 %34
}

; Function Attrs: inlinehint nounwind uwtable
define internal zeroext i1 @strip_suffix(ptr noundef %0, ptr noundef %1, ptr noundef %2) #5 {
  %4 = alloca ptr, align 8
  %5 = alloca ptr, align 8
  %6 = alloca ptr, align 8
  store ptr %0, ptr %4, align 8, !tbaa !11
  store ptr %1, ptr %5, align 8, !tbaa !11
  store ptr %2, ptr %6, align 8, !tbaa !267
  %7 = load ptr, ptr %4, align 8, !tbaa !11
  %8 = call i64 @strlen(ptr noundef %7) #13
  %9 = load ptr, ptr %6, align 8, !tbaa !267
  store i64 %8, ptr %9, align 8, !tbaa !173
  %10 = load ptr, ptr %4, align 8, !tbaa !11
  %11 = load ptr, ptr %6, align 8, !tbaa !267
  %12 = load ptr, ptr %5, align 8, !tbaa !11
  %13 = call zeroext i1 @strip_suffix_mem(ptr noundef %10, ptr noundef %11, ptr noundef %12)
  ret i1 %13
}

; Function Attrs: inlinehint nounwind uwtable
define internal i32 @ends_with(ptr noundef %0, ptr noundef %1) #5 {
  %3 = alloca ptr, align 8
  %4 = alloca ptr, align 8
  %5 = alloca i64, align 8
  store ptr %0, ptr %3, align 8, !tbaa !11
  store ptr %1, ptr %4, align 8, !tbaa !11
  call void @llvm.lifetime.start.p0(i64 8, ptr %5) #11
  %6 = load ptr, ptr %3, align 8, !tbaa !11
  %7 = load ptr, ptr %4, align 8, !tbaa !11
  %8 = call zeroext i1 @strip_suffix(ptr noundef %6, ptr noundef %7, ptr noundef %5)
  %9 = zext i1 %8 to i32
  call void @llvm.lifetime.end.p0(i64 8, ptr %5) #11
  ret i32 %9
}

; Function Attrs: nounwind uwtable
define internal i32 @find_and_replace(ptr noundef %0, ptr noundef %1, ptr noundef %2) #0 {
  %4 = alloca i32, align 4
  %5 = alloca ptr, align 8
  %6 = alloca ptr, align 8
  %7 = alloca ptr, align 8
  %8 = alloca ptr, align 8
  %9 = alloca i32, align 4
  %10 = alloca i32, align 4
  %11 = alloca i32, align 4
  store ptr %0, ptr %5, align 8, !tbaa !106
  store ptr %1, ptr %6, align 8, !tbaa !11
  store ptr %2, ptr %7, align 8, !tbaa !11
  call void @llvm.lifetime.start.p0(i64 8, ptr %8) #11
  store ptr null, ptr %8, align 8, !tbaa !11
  call void @llvm.lifetime.start.p0(i64 4, ptr %9) #11
  call void @llvm.lifetime.start.p0(i64 4, ptr %10) #11
  %12 = load ptr, ptr %6, align 8, !tbaa !11
  %13 = call i64 @strlen(ptr noundef %12) #13
  %14 = trunc i64 %13 to i32
  store i32 %14, ptr %10, align 4, !tbaa !4
  %15 = load ptr, ptr %5, align 8, !tbaa !106
  %16 = getelementptr inbounds nuw %struct.strbuf, ptr %15, i32 0, i32 2
  %17 = load ptr, ptr %16, align 8, !tbaa !150
  %18 = load ptr, ptr %6, align 8, !tbaa !11
  %19 = call i32 @ends_with(ptr noundef %17, ptr noundef %18)
  %20 = icmp ne i32 %19, 0
  br i1 %20, label %21, label %33

21:                                               ; preds = %3
  %22 = load ptr, ptr %5, align 8, !tbaa !106
  %23 = getelementptr inbounds nuw %struct.strbuf, ptr %22, i32 0, i32 2
  %24 = load ptr, ptr %23, align 8, !tbaa !150
  %25 = load ptr, ptr %5, align 8, !tbaa !106
  %26 = getelementptr inbounds nuw %struct.strbuf, ptr %25, i32 0, i32 1
  %27 = load i64, ptr %26, align 8, !tbaa !213
  %28 = getelementptr inbounds nuw i8, ptr %24, i64 %27
  %29 = load i32, ptr %10, align 4, !tbaa !4
  %30 = sext i32 %29 to i64
  %31 = sub i64 0, %30
  %32 = getelementptr inbounds i8, ptr %28, i64 %31
  store ptr %32, ptr %8, align 8, !tbaa !11
  br label %39

33:                                               ; preds = %3
  %34 = load ptr, ptr %5, align 8, !tbaa !106
  %35 = getelementptr inbounds nuw %struct.strbuf, ptr %34, i32 0, i32 2
  %36 = load ptr, ptr %35, align 8, !tbaa !150
  %37 = load ptr, ptr %6, align 8, !tbaa !11
  %38 = call ptr @strstr(ptr noundef %36, ptr noundef %37) #13
  store ptr %38, ptr %8, align 8, !tbaa !11
  br label %39

39:                                               ; preds = %33, %21
  %40 = load ptr, ptr %8, align 8, !tbaa !11
  %41 = icmp ne ptr %40, null
  br i1 %41, label %43, label %42

42:                                               ; preds = %39
  store i32 0, ptr %4, align 4
  store i32 1, ptr %11, align 4
  br label %86

43:                                               ; preds = %39
  %44 = load ptr, ptr %8, align 8, !tbaa !11
  %45 = load ptr, ptr %5, align 8, !tbaa !106
  %46 = getelementptr inbounds nuw %struct.strbuf, ptr %45, i32 0, i32 2
  %47 = load ptr, ptr %46, align 8, !tbaa !150
  %48 = icmp ugt ptr %44, %47
  br i1 %48, label %49, label %56

49:                                               ; preds = %43
  %50 = load ptr, ptr %8, align 8, !tbaa !11
  %51 = getelementptr inbounds i8, ptr %50, i64 -1
  %52 = load i8, ptr %51, align 1, !tbaa !119
  %53 = sext i8 %52 to i32
  %54 = icmp ne i32 %53, 47
  br i1 %54, label %55, label %56

55:                                               ; preds = %49
  store i32 0, ptr %4, align 4
  store i32 1, ptr %11, align 4
  br label %86

56:                                               ; preds = %49, %43
  %57 = load ptr, ptr %8, align 8, !tbaa !11
  %58 = call i64 @strlen(ptr noundef %57) #13
  %59 = trunc i64 %58 to i32
  store i32 %59, ptr %9, align 4, !tbaa !4
  %60 = load i32, ptr %9, align 4, !tbaa !4
  %61 = load i32, ptr %10, align 4, !tbaa !4
  %62 = icmp sgt i32 %60, %61
  br i1 %62, label %63, label %72

63:                                               ; preds = %56
  %64 = load ptr, ptr %8, align 8, !tbaa !11
  %65 = load i32, ptr %10, align 4, !tbaa !4
  %66 = sext i32 %65 to i64
  %67 = getelementptr inbounds i8, ptr %64, i64 %66
  %68 = load i8, ptr %67, align 1, !tbaa !119
  %69 = sext i8 %68 to i32
  %70 = icmp ne i32 %69, 47
  br i1 %70, label %71, label %72

71:                                               ; preds = %63
  store i32 0, ptr %4, align 4
  store i32 1, ptr %11, align 4
  br label %86

72:                                               ; preds = %63, %56
  %73 = load ptr, ptr %5, align 8, !tbaa !106
  %74 = load ptr, ptr %8, align 8, !tbaa !11
  %75 = load ptr, ptr %5, align 8, !tbaa !106
  %76 = getelementptr inbounds nuw %struct.strbuf, ptr %75, i32 0, i32 2
  %77 = load ptr, ptr %76, align 8, !tbaa !150
  %78 = ptrtoint ptr %74 to i64
  %79 = ptrtoint ptr %77 to i64
  %80 = sub i64 %78, %79
  %81 = load i32, ptr %10, align 4, !tbaa !4
  %82 = sext i32 %81 to i64
  %83 = load ptr, ptr %7, align 8, !tbaa !11
  %84 = load ptr, ptr %7, align 8, !tbaa !11
  %85 = call i64 @strlen(ptr noundef %84) #13
  call void @strbuf_splice(ptr noundef %73, i64 noundef %80, i64 noundef %82, ptr noundef %83, i64 noundef %85)
  store i32 1, ptr %4, align 4
  store i32 1, ptr %11, align 4
  br label %86

86:                                               ; preds = %72, %71, %55, %42
  call void @llvm.lifetime.end.p0(i64 4, ptr %10) #11
  call void @llvm.lifetime.end.p0(i64 4, ptr %9) #11
  call void @llvm.lifetime.end.p0(i64 8, ptr %8) #11
  %87 = load i32, ptr %4, align 4
  ret i32 %87
}