; Function Attrs: nounwind uwtable
define internal fastcc range(i32 0, 2) i32 @find_and_replace(ptr noundef nonnull %0, ptr noundef readonly captures(none) %1) unnamed_addr #0 {
  %3 = tail call i64 @strlen(ptr noundef nonnull dereferenceable(1) %1) #22
  %4 = trunc i64 %3 to i32
  %5 = getelementptr inbounds nuw i8, ptr %0, i64 16
  %6 = load ptr, ptr %5, align 8, !tbaa !101
  %7 = tail call i64 @strlen(ptr noundef nonnull readonly dereferenceable(1) %6) #22
  %8 = icmp ult i64 %7, %3
  br i1 %8, label %ends_with.exit.thread, label %ends_with.exit

ends_with.exit:                                   ; preds = %2
  %9 = sub nuw i64 %7, %3
  %10 = getelementptr inbounds nuw i8, ptr %6, i64 %9
  %bcmp.i.i.i = tail call i32 @bcmp(ptr nonnull readonly %10, ptr nonnull readonly %1, i64 %3)
  %.not.i.i.i.not = icmp eq i32 %bcmp.i.i.i, 0
  br i1 %.not.i.i.i.not, label %11, label %ends_with.exit.thread

11:                                               ; preds = %ends_with.exit
  %12 = getelementptr inbounds nuw i8, ptr %0, i64 8
  %13 = load i64, ptr %12, align 8, !tbaa !160
  %14 = getelementptr inbounds nuw i8, ptr %6, i64 %13
  %sext = shl i64 %3, 32
  %15 = ashr exact i64 %sext, 32
  %16 = sub nsw i64 0, %15
  %17 = getelementptr inbounds i8, ptr %14, i64 %16
  br label %19

ends_with.exit.thread:                            ; preds = %2, %ends_with.exit
  %18 = tail call ptr @strstr(ptr noundef nonnull dereferenceable(1) %6, ptr noundef nonnull dereferenceable(1) %1) #22
  br label %19

19:                                               ; preds = %ends_with.exit.thread, %11
  %.023 = phi ptr [ %17, %11 ], [ %18, %ends_with.exit.thread ]
  %.not25 = icmp eq ptr %.023, null
  br i1 %.not25, label %36, label %20

20:                                               ; preds = %19
  %21 = icmp ugt ptr %.023, %6
  br i1 %21, label %22, label %25

22:                                               ; preds = %20
  %23 = getelementptr inbounds i8, ptr %.023, i64 -1
  %24 = load i8, ptr %23, align 1, !tbaa !125
  %.not26 = icmp eq i8 %24, 47
  br i1 %.not26, label %25, label %36

25:                                               ; preds = %22, %20
  %26 = tail call i64 @strlen(ptr noundef nonnull dereferenceable(1) %.023) #22
  %27 = trunc i64 %26 to i32
  %28 = icmp sgt i32 %27, %4
  %sext27 = shl i64 %3, 32
  %29 = ashr exact i64 %sext27, 32
  br i1 %28, label %30, label %._crit_edge

30:                                               ; preds = %25
  %31 = getelementptr inbounds i8, ptr %.023, i64 %29
  %32 = load i8, ptr %31, align 1, !tbaa !125
  %.not28 = icmp eq i8 %32, 47
  br i1 %.not28, label %._crit_edge, label %36

._crit_edge:                                      ; preds = %25, %30
  %33 = ptrtoint ptr %.023 to i64
  %34 = ptrtoint ptr %6 to i64
  %35 = sub i64 %33, %34
  tail call void @strbuf_splice(ptr noundef nonnull %0, i64 noundef %35, i64 noundef %29, ptr noundef nonnull @.str.207, i64 noundef 1) #20
  br label %36

36:                                               ; preds = %30, %22, %19, %._crit_edge
  %.0 = phi i32 [ 1, %._crit_edge ], [ 0, %19 ], [ 0, %22 ], [ 0, %30 ]
  ret i32 %.0
}